target datalayout = "e-m:e-p270:32:32-p271:32:32-p272:64:64-i64:64-i128:128-f80:128-n8:16:32:64-S128"
target triple = "x86_64-pc-linux-gnu"

%struct.mbedtls_mps_reader = type { ptr, i64, i64, i64, i64, ptr, i64, i64, %union.anon }
%union.anon = type { i64 }

; Function Attrs: inlinehint nounwind uwtable
define internal i32 @mps_reader_is_accumulating(ptr noundef %0) #1 {
  %2 = alloca i32, align 4
  %3 = alloca ptr, align 8
  %4 = alloca i64, align 8
  %5 = alloca i32, align 4
  store ptr %0, ptr %3, align 8, !tbaa !3
  call void @llvm.lifetime.start.p0(i64 8, ptr %4) #4
  %6 = load ptr, ptr %3, align 8, !tbaa !3
  %7 = getelementptr inbounds nuw %struct.mbedtls_mps_reader, ptr %6, i32 0, i32 5
  %8 = load ptr, ptr %7, align 8, !tbaa !12
  %9 = icmp eq ptr %8, null
  br i1 %9, label %10, label %11

10:                                               ; preds = %1
  store i32 0, ptr %2, align 4
  store i32 1, ptr %5, align 4
  br label %18

11:                                               ; preds = %1
  %12 = load ptr, ptr %3, align 8, !tbaa !3
  %13 = getelementptr inbounds nuw %struct.mbedtls_mps_reader, ptr %12, i32 0, i32 8
  %14 = load i64, ptr %13, align 8, !tbaa !16
  store i64 %14, ptr %4, align 8, !tbaa !10
  %15 = load i64, ptr %4, align 8, !tbaa !10
  %16 = icmp ugt i64 %15, 0
  %17 = zext i1 %16 to i32
  store i32 %17, ptr %2, align 4
  store i32 1, ptr %5, align 4
  br label %18

18:                                               ; preds = %11, %10
  call void @llvm.lifetime.end.p0(i64 8, ptr %4) #4
  %19 = load i32, ptr %2, align 4
  ret i32 %19
}

; Function Attrs: inlinehint nounwind uwtable
define internal i32 @mps_reader_is_producing(ptr noundef %0) #1 {
  %2 = alloca ptr, align 8
  %3 = alloca ptr, align 8
  store ptr %0, ptr %2, align 8, !tbaa !3
  call void @llvm.lifetime.start.p0(i64 8, ptr %3) #4
  %4 = load ptr, ptr %2, align 8, !tbaa !3
  %5 = getelementptr inbounds nuw %struct.mbedtls_mps_reader, ptr %4, i32 0, i32 0
  %6 = load ptr, ptr %5, align 8, !tbaa !18
  store ptr %6, ptr %3, align 8, !tbaa !8
  %7 = load ptr, ptr %3, align 8, !tbaa !8
  %8 = icmp eq ptr %7, null
  %9 = zext i1 %8 to i32
  call void @llvm.lifetime.end.p0(i64 8, ptr %3) #4
  ret i32 %9
}

; Function Attrs: nounwind uwtable
define hidden i32 @mbedtls_mps_reader_feed(ptr noundef %0, ptr noundef %1, i64 noundef %2) #0 {
  %4 = alloca i32, align 4
  %5 = alloca ptr, align 8
  %6 = alloca ptr, align 8
  %7 = alloca i64, align 8
  %8 = alloca i64, align 8
  %9 = alloca i32, align 4
  %10 = alloca ptr, align 8
  %11 = alloca i64, align 8
  %12 = alloca i64, align 8
  store ptr %0, ptr %5, align 8, !tbaa !3
  store ptr %1, ptr %6, align 8, !tbaa !8
  store i64 %2, ptr %7, align 8, !tbaa !10
  call void @llvm.lifetime.start.p0(i64 8, ptr %8) #4
  br label %13

13:                                               ; preds = %3
  br label %14

14:                                               ; preds = %13
  br label %15

15:                                               ; preds = %14
  br label %16

16:                                               ; preds = %15
  br label %17

17:                                               ; preds = %16
  br label %18

18:                                               ; preds = %17
  %19 = load ptr, ptr %6, align 8, !tbaa !8
  %20 = icmp eq ptr %19, null
  br i1 %20, label %21, label %22

21:                                               ; preds = %18
  store i32 -258, ptr %4, align 4
  store i32 1, ptr %9, align 4
  br label %108

22:                                               ; preds = %18
  br label %23

23:                                               ; preds = %22
  %24 = load ptr, ptr %5, align 8, !tbaa !3
  %25 = call i32 @mps_reader_is_producing(ptr noundef %24)
  %26 = icmp ne i32 %25, 0
  br i1 %26, label %31, label %27

27:                                               ; preds = %23
  br label %28

28:                                               ; preds = %27
  br label %29

29:                                               ; preds = %28
  br label %30

30:                                               ; preds = %29
  store i32 -1, ptr %4, align 4
  store i32 1, ptr %9, align 4
  br label %108

31:                                               ; preds = %23
  br label %32

32:                                               ; preds = %31
  br label %33

33:                                               ; preds = %32
  %34 = load ptr, ptr %5, align 8, !tbaa !3
  %35 = call i32 @mps_reader_is_accumulating(ptr noundef %34)
  %36 = icmp ne i32 %35, 0
  br i1 %36, label %37, label %94

37:                                               ; preds = %33
  call void @llvm.lifetime.start.p0(i64 8, ptr %10) #4
  %38 = load ptr, ptr %5, align 8, !tbaa !3
  %39 = getelementptr inbounds nuw %struct.mbedtls_mps_reader, ptr %38, i32 0, i32 5
  %40 = load ptr, ptr %39, align 8, !tbaa !12
  store ptr %40, ptr %10, align 8, !tbaa !8
  call void @llvm.lifetime.start.p0(i64 8, ptr %11) #4
  %41 = load ptr, ptr %5, align 8, !tbaa !3
  %42 = getelementptr inbounds nuw %struct.mbedtls_mps_reader, ptr %41, i32 0, i32 8
  %43 = load i64, ptr %42, align 8, !tbaa !16
  store i64 %43, ptr %11, align 8, !tbaa !10
  call void @llvm.lifetime.start.p0(i64 8, ptr %12) #4
  %44 = load ptr, ptr %5, align 8, !tbaa !3
  %45 = getelementptr inbounds nuw %struct.mbedtls_mps_reader, ptr %44, i32 0, i32 7
  %46 = load i64, ptr %45, align 8, !tbaa !17
  store i64 %46, ptr %12, align 8, !tbaa !10
  %47 = load i64, ptr %12, align 8, !tbaa !10
  %48 = load ptr, ptr %10, align 8, !tbaa !8
  %49 = getelementptr inbounds nuw i8, ptr %48, i64 %47
  store ptr %49, ptr %10, align 8, !tbaa !8
  %50 = load i64, ptr %11, align 8, !tbaa !10
  store i64 %50, ptr %8, align 8, !tbaa !10
  %51 = load i64, ptr %8, align 8, !tbaa !10
  %52 = load i64, ptr %7, align 8, !tbaa !10
  %53 = icmp ugt i64 %51, %52
  br i1 %53, label %54, label %56

54:                                               ; preds = %37
  %55 = load i64, ptr %7, align 8, !tbaa !10
  store i64 %55, ptr %8, align 8, !tbaa !10
  br label %56

56:                                               ; preds = %54, %37
  %57 = load ptr, ptr %10, align 8, !tbaa !8
  %58 = load ptr, ptr %6, align 8, !tbaa !8
  %59 = load i64, ptr %8, align 8, !tbaa !10
  call void @llvm.memcpy.p0.p0.i64(ptr align 1 %57, ptr align 1 %58, i64 %59, i1 false)
  br label %60

60:                                               ; preds = %56
  br label %61

61:                                               ; preds = %60
  br label %62

62:                                               ; preds = %61
  %63 = load i64, ptr %8, align 8, !tbaa !10
  %64 = load i64, ptr %11, align 8, !tbaa !10
  %65 = sub i64 %64, %63
  store i64 %65, ptr %11, align 8, !tbaa !10
  %66 = load i64, ptr %11, align 8, !tbaa !10
  %67 = icmp ugt i64 %66, 0
  br i1 %67, label %68, label %78

68:                                               ; preds = %62
  %69 = load i64, ptr %8, align 8, !tbaa !10
  %70 = load i64, ptr %12, align 8, !tbaa !10
  %71 = add i64 %70, %69
  store i64 %71, ptr %12, align 8, !tbaa !10
  %72 = load i64, ptr %11, align 8, !tbaa !10
  %73 = load ptr, ptr %5, align 8, !tbaa !3
  %74 = getelementptr inbounds nuw %struct.mbedtls_mps_reader, ptr %73, i32 0, i32 8
  store i64 %72, ptr %74, align 8, !tbaa !16
  %75 = load i64, ptr %12, align 8, !tbaa !10
  %76 = load ptr, ptr %5, align 8, !tbaa !3
  %77 = getelementptr inbounds nuw %struct.mbedtls_mps_reader, ptr %76, i32 0, i32 7
  store i64 %75, ptr %77, align 8, !tbaa !17
  store i32 -259, ptr %4, align 4
  store i32 1, ptr %9, align 4
  br label %91

78:                                               ; preds = %62
  br label %79

79:                                               ; preds = %78
  br label %80

80:                                               ; preds = %79
  br label %81

81:                                               ; preds = %80
  %82 = load i64, ptr %12, align 8, !tbaa !10
  %83 = load ptr, ptr %5, align 8, !tbaa !3
  %84 = getelementptr inbounds nuw %struct.mbedtls_mps_reader, ptr %83, i32 0, i32 8
  store i64 %82, ptr %84, align 8, !tbaa !16
  %85 = load i64, ptr %8, align 8, !tbaa !10
  %86 = load i64, ptr %12, align 8, !tbaa !10
  %87 = add i64 %86, %85
  store i64 %87, ptr %12, align 8, !tbaa !10
  %88 = load i64, ptr %12, align 8, !tbaa !10
  %89 = load ptr, ptr %5, align 8, !tbaa !3
  %90 = getelementptr inbounds nuw %struct.mbedtls_mps_reader, ptr %89, i32 0, i32 7
  store i64 %88, ptr %90, align 8, !tbaa !17
  store i32 0, ptr %9, align 4
  br label %91

91:                                               ; preds = %81, %68
  call void @llvm.lifetime.end.p0(i64 8, ptr %12) #4
  call void @llvm.lifetime.end.p0(i64 8, ptr %11) #4
  call void @llvm.lifetime.end.p0(i64 8, ptr %10) #4
  %92 = load i32, ptr %9, align 4
  switch i32 %92, label %108 [
    i32 0, label %93
  ]

93:                                               ; preds = %91
  br label %97

94:                                               ; preds = %33
  %95 = load ptr, ptr %5, align 8, !tbaa !3
  %96 = getelementptr inbounds nuw %struct.mbedtls_mps_reader, ptr %95, i32 0, i32 8
  store i64 0, ptr %96, align 8, !tbaa !16
  br label %97

97:                                               ; preds = %94, %93
  %98 = load ptr, ptr %6, align 8, !tbaa !8
  %99 = load ptr, ptr %5, align 8, !tbaa !3
  %100 = getelementptr inbounds nuw %struct.mbedtls_mps_reader, ptr %99, i32 0, i32 0
  store ptr %98, ptr %100, align 8, !tbaa !18
  %101 = load i64, ptr %7, align 8, !tbaa !10
  %102 = load ptr, ptr %5, align 8, !tbaa !3
  %103 = getelementptr inbounds nuw %struct.mbedtls_mps_reader, ptr %102, i32 0, i32 1
  store i64 %101, ptr %103, align 8, !tbaa !19
  %104 = load ptr, ptr %5, align 8, !tbaa !3
  %105 = getelementptr inbounds nuw %struct.mbedtls_mps_reader, ptr %104, i32 0, i32 2
  store i64 0, ptr %105, align 8, !tbaa !20
  %106 = load ptr, ptr %5, align 8, !tbaa !3
  %107 = getelementptr inbounds nuw %struct.mbedtls_mps_reader, ptr %106, i32 0, i32 3
  store i64 0, ptr %107, align 8, !tbaa !21
  store i32 0, ptr %4, align 4
  store i32 1, ptr %9, align 4
  br label %108

108:                                              ; preds = %97, %91, %30, %21
  call void @llvm.lifetime.end.p0(i64 8, ptr %8) #4
  %109 = load i32, ptr %4, align 4
  ret i32 %109
}