; Function Attrs: mustprogress nofree norecurse nosync nounwind willreturn memory(readwrite, inaccessiblemem: none) uwtable
define hidden range(i32 -259, 1) i32 @mbedtls_mps_reader_feed(ptr noundef captures(none) %0, ptr noundef %1, i64 noundef %2) local_unnamed_addr #1 {
  %4 = icmp eq ptr %1, null
  br i1 %4, label %21, label %5

5:                                                ; preds = %3
  %.val = load ptr, ptr %0, align 8, !tbaa !11
  %.not = icmp eq ptr %.val, null
  br i1 %.not, label %6, label %21

6:                                                ; preds = %5
  %7 = getelementptr inbounds nuw i8, ptr %0, i64 40
  %8 = load ptr, ptr %7, align 8, !tbaa !3
  %9 = icmp eq ptr %8, null
  br i1 %9, label %mps_reader_is_accumulating.exit.thread, label %mps_reader_is_accumulating.exit

mps_reader_is_accumulating.exit:                  ; preds = %6
  %10 = getelementptr inbounds nuw i8, ptr %0, i64 64
  %11 = load i64, ptr %10, align 8, !tbaa !12
  %.not49 = icmp eq i64 %11, 0
  br i1 %.not49, label %mps_reader_is_accumulating.exit.thread, label %12

12:                                               ; preds = %mps_reader_is_accumulating.exit
  %13 = getelementptr inbounds nuw i8, ptr %0, i64 56
  %14 = load i64, ptr %13, align 8, !tbaa !13
  %15 = getelementptr inbounds nuw i8, ptr %8, i64 %14
  %spec.select = tail call i64 @llvm.umin.i64(i64 %11, i64 %2)
  tail call void @llvm.memcpy.p0.p0.i64(ptr nonnull align 1 %15, ptr nonnull align 1 %1, i64 %spec.select, i1 false)
  %.not45.not = icmp ugt i64 %11, %2
  %16 = sub i64 %11, %spec.select
  %storemerge46 = select i1 %.not45.not, i64 %16, i64 %14
  store i64 %storemerge46, ptr %10, align 8, !tbaa !12
  %storemerge = add i64 %14, %spec.select
  store i64 %storemerge, ptr %13, align 8, !tbaa !13
  br i1 %.not45.not, label %21, label %18

mps_reader_is_accumulating.exit.thread:           ; preds = %6, %mps_reader_is_accumulating.exit
  %17 = getelementptr inbounds nuw i8, ptr %0, i64 64
  store i64 0, ptr %17, align 8, !tbaa !12
  br label %18

18:                                               ; preds = %12, %mps_reader_is_accumulating.exit.thread
  store ptr %1, ptr %0, align 8, !tbaa !11
  %19 = getelementptr inbounds nuw i8, ptr %0, i64 8
  store i64 %2, ptr %19, align 8, !tbaa !14
  %20 = getelementptr inbounds nuw i8, ptr %0, i64 16
  tail call void @llvm.memset.p0.i64(ptr noundef nonnull align 8 dereferenceable(16) %20, i8 0, i64 16, i1 false)
  br label %21

21:                                               ; preds = %5, %3, %12, %18
  %.039 = phi i32 [ 0, %18 ], [ -259, %12 ], [ -258, %3 ], [ -1, %5 ]
  ret i32 %.039
}